target datalayout = "e-m:e-p270:32:32-p271:32:32-p272:64:64-i64:64-i128:128-f80:128-n8:16:32:64-S128"
target triple = "x86_64-pc-linux-gnu"

%struct.StringInfoData = type { ptr, i32, i32, i32 }
%struct.deparse_context = type { ptr, ptr, ptr, ptr, ptr, i32, i32, i32, i8, i8, i8, i8, ptr }

; Function Attrs: nounwind uwtable
define internal ptr @deparse_expression_pretty(ptr noundef %0, ptr noundef %1, i1 noundef zeroext %2, i1 noundef zeroext %3, i32 noundef %4, i32 noundef %5) #0 {
  %7 = alloca ptr, align 8
  %8 = alloca ptr, align 8
  %9 = alloca i8, align 1
  %10 = alloca i8, align 1
  %11 = alloca i32, align 4
  %12 = alloca i32, align 4
  %13 = alloca %struct.StringInfoData, align 8
  %14 = alloca %struct.deparse_context, align 8
  store ptr %0, ptr %7, align 8
  store ptr %1, ptr %8, align 8
  %15 = zext i1 %2 to i8
  store i8 %15, ptr %9, align 1
  %16 = zext i1 %3 to i8
  store i8 %16, ptr %10, align 1
  store i32 %4, ptr %11, align 4
  store i32 %5, ptr %12, align 4
  call void @llvm.lifetime.start.p0(i64 24, ptr %13) #10
  call void @llvm.lifetime.start.p0(i64 64, ptr %14) #10
  call void @initStringInfo(ptr noundef %13)
  %17 = getelementptr inbounds nuw %struct.deparse_context, ptr %14, i32 0, i32 0
  store ptr %13, ptr %17, align 8
  %18 = load ptr, ptr %8, align 8
  %19 = getelementptr inbounds nuw %struct.deparse_context, ptr %14, i32 0, i32 1
  store ptr %18, ptr %19, align 8
  %20 = getelementptr inbounds nuw %struct.deparse_context, ptr %14, i32 0, i32 2
  store ptr null, ptr %20, align 8
  %21 = getelementptr inbounds nuw %struct.deparse_context, ptr %14, i32 0, i32 3
  store ptr null, ptr %21, align 8
  %22 = getelementptr inbounds nuw %struct.deparse_context, ptr %14, i32 0, i32 4
  store ptr null, ptr %22, align 8
  %23 = load i8, ptr %9, align 1, !range !4, !noundef !5
  %24 = trunc i8 %23 to i1
  %25 = getelementptr inbounds nuw %struct.deparse_context, ptr %14, i32 0, i32 8
  %26 = zext i1 %24 to i8
  store i8 %26, ptr %25, align 4
  %27 = load i32, ptr %11, align 4
  %28 = getelementptr inbounds nuw %struct.deparse_context, ptr %14, i32 0, i32 5
  store i32 %27, ptr %28, align 8
  %29 = getelementptr inbounds nuw %struct.deparse_context, ptr %14, i32 0, i32 6
  store i32 0, ptr %29, align 4
  %30 = load i32, ptr %12, align 4
  %31 = getelementptr inbounds nuw %struct.deparse_context, ptr %14, i32 0, i32 7
  store i32 %30, ptr %31, align 8
  %32 = getelementptr inbounds nuw %struct.deparse_context, ptr %14, i32 0, i32 9
  store i8 1, ptr %32, align 1
  %33 = getelementptr inbounds nuw %struct.deparse_context, ptr %14, i32 0, i32 10
  store i8 0, ptr %33, align 2
  %34 = getelementptr inbounds nuw %struct.deparse_context, ptr %14, i32 0, i32 11
  store i8 0, ptr %34, align 1
  %35 = getelementptr inbounds nuw %struct.deparse_context, ptr %14, i32 0, i32 12
  store ptr null, ptr %35, align 8
  %36 = load ptr, ptr %7, align 8
  %37 = load i8, ptr %10, align 1, !range !4, !noundef !5
  %38 = trunc i8 %37 to i1
  call void @get_rule_expr(ptr noundef %36, ptr noundef %14, i1 noundef zeroext %38)
  %39 = getelementptr inbounds nuw %struct.StringInfoData, ptr %13, i32 0, i32 0
  %40 = load ptr, ptr %39, align 8
  call void @llvm.lifetime.end.p0(i64 64, ptr %14) #10
  call void @llvm.lifetime.end.p0(i64 24, ptr %13) #10
  ret ptr %40
}

; Function Attrs: nounwind uwtable
define dso_local ptr @deparse_expression(ptr noundef %0, ptr noundef %1, i1 noundef zeroext %2, i1 noundef zeroext %3) #0 {
  %5 = alloca ptr, align 8
  %6 = alloca ptr, align 8
  %7 = alloca i8, align 1
  %8 = alloca i8, align 1
  store ptr %0, ptr %5, align 8
  store ptr %1, ptr %6, align 8
  %9 = zext i1 %2 to i8
  store i8 %9, ptr %7, align 1
  %10 = zext i1 %3 to i8
  store i8 %10, ptr %8, align 1
  %11 = load ptr, ptr %5, align 8
  %12 = load ptr, ptr %6, align 8
  %13 = load i8, ptr %7, align 1, !range !4, !noundef !5
  %14 = trunc i8 %13 to i1
  %15 = load i8, ptr %8, align 1, !range !4, !noundef !5
  %16 = trunc i8 %15 to i1
  %17 = call ptr @deparse_expression_pretty(ptr noundef %11, ptr noundef %12, i1 noundef zeroext %14, i1 noundef zeroext %16, i32 noundef 0, i32 noundef 0)
  ret ptr %17
}