; Function Attrs: nounwind uwtable
define dso_local ptr @deparse_expression(ptr noundef %0, ptr noundef %1, i1 noundef zeroext %2, i1 noundef zeroext %3) local_unnamed_addr #0 {
  %5 = alloca %struct.StringInfoData, align 8
  %6 = alloca %struct.deparse_context, align 8
  %7 = zext i1 %2 to i8
  call void @llvm.lifetime.start.p0(i64 24, ptr nonnull %5) #11
  call void @llvm.lifetime.start.p0(i64 64, ptr nonnull %6) #11
  call void @initStringInfo(ptr noundef nonnull %5) #11
  store ptr %5, ptr %6, align 8
  %8 = getelementptr inbounds nuw i8, ptr %6, i64 8
  store ptr %1, ptr %8, align 8
  %9 = getelementptr inbounds nuw i8, ptr %6, i64 16
  %10 = getelementptr inbounds nuw i8, ptr %6, i64 52
  call void @llvm.memset.p0.i64(ptr noundef nonnull align 8 dereferenceable(24) %9, i8 0, i64 24, i1 false)
  store i8 %7, ptr %10, align 4
  %11 = getelementptr inbounds nuw i8, ptr %6, i64 40
  store i32 0, ptr %11, align 8
  %12 = getelementptr inbounds nuw i8, ptr %6, i64 44
  store i32 0, ptr %12, align 4
  %13 = getelementptr inbounds nuw i8, ptr %6, i64 48
  store i32 0, ptr %13, align 8
  %14 = getelementptr inbounds nuw i8, ptr %6, i64 53
  store i8 1, ptr %14, align 1
  %15 = getelementptr inbounds nuw i8, ptr %6, i64 54
  store i8 0, ptr %15, align 2
  %16 = getelementptr inbounds nuw i8, ptr %6, i64 55
  store i8 0, ptr %16, align 1
  %17 = getelementptr inbounds nuw i8, ptr %6, i64 56
  store ptr null, ptr %17, align 8
  call fastcc void @get_rule_expr(ptr noundef %0, ptr noundef nonnull %6, i1 noundef zeroext %3)
  %18 = load ptr, ptr %5, align 8
  call void @llvm.lifetime.end.p0(i64 64, ptr nonnull %6) #11
  call void @llvm.lifetime.end.p0(i64 24, ptr nonnull %5) #11
  ret ptr %18
}